target datalayout = "e-m:e-p270:32:32-p271:32:32-p272:64:64-i64:64-i128:128-f80:128-n8:16:32:64-S128"
target triple = "x86_64-pc-linux-gnu"

%struct.AVChannelLayout = type { i32, i32, %union.anon.2, ptr }
%union.anon.2 = type { i64 }
%struct.AACDecContext = type { ptr, ptr, %struct.AACDecDSP, %struct.AACDecProc, ptr, i32, %struct.DynamicRangeControl, [4 x [64 x ptr]], [4 x [64 x ptr]], i32, i32, [8 x i8], %union.anon, %union.anon.0, ptr, ptr, ptr, ptr, ptr, ptr, ptr, ptr, ptr, ptr, ptr, ptr, ptr, ptr, ptr, ptr, ptr, ptr, %union.anon.1, i32, [64 x ptr], i32, i32, i32, [2 x %struct.OutputConfiguration], i32, i32, i32, i32, i32, i32, [8 x i8] }
%struct.AACDecDSP = type { ptr, ptr, ptr, ptr, ptr, ptr, ptr, ptr, ptr, ptr, ptr, ptr, ptr, ptr, ptr }
%struct.AACDecProc = type { ptr, ptr, ptr, ptr, ptr, ptr }
%struct.DynamicRangeControl = type { i32, [17 x i32], [17 x i32], [64 x i32], i32, i32, [17 x i32], i32 }
%union.anon = type { [1024 x i32] }
%union.anon.0 = type { [128 x i32] }
%union.anon.1 = type { ptr }
%struct.OutputConfiguration = type { %struct.MPEG4AudioConfig, [256 x [3 x i8]], i32, %struct.AVChannelLayout, i32, %struct.AACUSACConfig }
%struct.MPEG4AudioConfig = type { i32, i32, i32, i32, i32, i32, i32, i32, i32, i32, i32, i32 }
%struct.AACUSACConfig = type { i8, i16, i16, [64 x %struct.AACUsacElemConfig], i32, %struct.anon.6 }
%struct.AACUsacElemConfig = type { i32, i8, i8, %struct.anon, %struct.anon.4, %struct.anon.5 }
%struct.anon = type { i32, i8, %struct.anon.3 }
%struct.anon.3 = type { i8, i8, i8, i8, i8, i8, i8, i8 }
%struct.anon.4 = type { i8, i8, i8, i8, i8, i8, i8, i8, i8 }
%struct.anon.5 = type { i32, i8, i32, i32, ptr }
%struct.anon.6 = type { i8, i8, [64 x %struct.AACUSACLoudnessInfo], i8, i8, [64 x %struct.AACUSACLoudnessInfo] }
%struct.AACUSACLoudnessInfo = type <{ i16, %struct.anon.7, %struct.anon.8, i8, [16 x %struct.anon.9], i8 }>
%struct.anon.7 = type { i16 }
%struct.anon.8 = type { i32 }
%struct.anon.9 = type { i8, i8, i8 }
%struct.AVCodecContext = type { ptr, i32, i32, ptr, i32, i32, ptr, ptr, ptr, i64, i32, i32, ptr, i32, %struct.AVRational, %struct.AVRational, %struct.AVRational, i32, i32, i32, i32, i32, %struct.AVRational, i32, i32, i32, i32, i32, i32, i32, i32, i32, i32, i32, ptr, ptr, i32, float, float, float, float, float, float, float, float, float, i32, i32, i32, i32, i32, i32, i32, i32, i32, i32, i32, i32, ptr, ptr, ptr, i32, i32, i32, i32, i32, i32, i32, i32, i32, i32, %struct.AVChannelLayout, i32, i32, i32, i32, i32, i32, i32, i32, ptr, i32, i32, i32, float, float, i32, i32, i32, i32, i32, ptr, i64, i64, float, float, i32, i32, ptr, ptr, i32, i32, i32, i32, i32, ptr, ptr, ptr, ptr, i32, i32, [8 x i64], i32, i32, i32, i32, i32, i32, i32, ptr, ptr, i32, i32, i32, i32, i32, i32, i32, i32, i32, i32, ptr, ptr, i32, i32, ptr, ptr, ptr, ptr, i32, i32, i64, i32, i32, i64, ptr, i64, ptr, i32, ptr, i32 }
%struct.AVRational = type { i32, i32 }

; Function Attrs: nounwind uwtable
define internal void @pop_output_configuration(ptr noundef %0) #0 {
  %2 = alloca ptr, align 8
  store ptr %0, ptr %2, align 8, !tbaa !4
  %3 = load ptr, ptr %2, align 8, !tbaa !4
  %4 = getelementptr inbounds nuw %struct.AACDecContext, ptr %3, i32 0, i32 38
  %5 = getelementptr inbounds [2 x %struct.OutputConfiguration], ptr %4, i64 0, i64 1
  %6 = getelementptr inbounds nuw %struct.OutputConfiguration, ptr %5, i32 0, i32 4
  %7 = load i32, ptr %6, align 8, !tbaa !42
  %8 = icmp ne i32 %7, 4
  br i1 %8, label %9, label %48

9:                                                ; preds = %1
  %10 = load ptr, ptr %2, align 8, !tbaa !4
  %11 = getelementptr inbounds nuw %struct.AACDecContext, ptr %10, i32 0, i32 38
  %12 = getelementptr inbounds [2 x %struct.OutputConfiguration], ptr %11, i64 0, i64 0
  %13 = getelementptr inbounds nuw %struct.OutputConfiguration, ptr %12, i32 0, i32 4
  %14 = load i32, ptr %13, align 16, !tbaa !42
  %15 = icmp ne i32 %14, 0
  br i1 %15, label %16, label %48

16:                                               ; preds = %9
  %17 = load ptr, ptr %2, align 8, !tbaa !4
  %18 = getelementptr inbounds nuw %struct.AACDecContext, ptr %17, i32 0, i32 38
  %19 = getelementptr inbounds [2 x %struct.OutputConfiguration], ptr %18, i64 0, i64 1
  %20 = load ptr, ptr %2, align 8, !tbaa !4
  %21 = getelementptr inbounds nuw %struct.AACDecContext, ptr %20, i32 0, i32 38
  %22 = getelementptr inbounds [2 x %struct.OutputConfiguration], ptr %21, i64 0, i64 0
  call void @llvm.memcpy.p0.p0.i64(ptr align 8 %19, ptr align 16 %22, i64 12392, i1 false), !tbaa.struct !90
  %23 = load ptr, ptr %2, align 8, !tbaa !4
  %24 = getelementptr inbounds nuw %struct.AACDecContext, ptr %23, i32 0, i32 1
  %25 = load ptr, ptr %24, align 8, !tbaa !13
  %26 = getelementptr inbounds nuw %struct.AVCodecContext, ptr %25, i32 0, i32 71
  %27 = load ptr, ptr %2, align 8, !tbaa !4
  %28 = getelementptr inbounds nuw %struct.AACDecContext, ptr %27, i32 0, i32 38
  %29 = getelementptr inbounds [2 x %struct.OutputConfiguration], ptr %28, i64 0, i64 1
  %30 = getelementptr inbounds nuw %struct.OutputConfiguration, ptr %29, i32 0, i32 3
  call void @llvm.memcpy.p0.p0.i64(ptr align 8 %26, ptr align 8 %30, i64 24, i1 false), !tbaa.struct !216
  %31 = load ptr, ptr %2, align 8, !tbaa !4
  %32 = load ptr, ptr %2, align 8, !tbaa !4
  %33 = getelementptr inbounds nuw %struct.AACDecContext, ptr %32, i32 0, i32 38
  %34 = getelementptr inbounds [2 x %struct.OutputConfiguration], ptr %33, i64 0, i64 1
  %35 = getelementptr inbounds nuw %struct.OutputConfiguration, ptr %34, i32 0, i32 1
  %36 = getelementptr inbounds [256 x [3 x i8]], ptr %35, i64 0, i64 0
  %37 = load ptr, ptr %2, align 8, !tbaa !4
  %38 = getelementptr inbounds nuw %struct.AACDecContext, ptr %37, i32 0, i32 38
  %39 = getelementptr inbounds [2 x %struct.OutputConfiguration], ptr %38, i64 0, i64 1
  %40 = getelementptr inbounds nuw %struct.OutputConfiguration, ptr %39, i32 0, i32 2
  %41 = load i32, ptr %40, align 8, !tbaa !25
  %42 = load ptr, ptr %2, align 8, !tbaa !4
  %43 = getelementptr inbounds nuw %struct.AACDecContext, ptr %42, i32 0, i32 38
  %44 = getelementptr inbounds [2 x %struct.OutputConfiguration], ptr %43, i64 0, i64 1
  %45 = getelementptr inbounds nuw %struct.OutputConfiguration, ptr %44, i32 0, i32 4
  %46 = load i32, ptr %45, align 8, !tbaa !42
  %47 = call i32 @ff_aac_output_configure(ptr noundef %31, ptr noundef %36, i32 noundef %41, i32 noundef %46, i32 noundef 0)
  br label %48

48:                                               ; preds = %16, %9, %1
  ret void
}