; Function Attrs: nounwind uwtable
define internal fastcc void @pop_output_configuration(ptr noundef %0) unnamed_addr #0 {
  %2 = getelementptr inbounds nuw i8, ptr %0, i64 10080
  %3 = getelementptr inbounds nuw i8, ptr %0, i64 22472
  %4 = getelementptr inbounds nuw i8, ptr %0, i64 23320
  %5 = load i32, ptr %4, align 8, !tbaa !50
  %.not = icmp eq i32 %5, 4
  br i1 %.not, label %19, label %6

6:                                                ; preds = %1
  %7 = getelementptr inbounds nuw i8, ptr %0, i64 10928
  %8 = load i32, ptr %7, align 16, !tbaa !50
  %.not10 = icmp eq i32 %8, 0
  br i1 %.not10, label %19, label %9

9:                                                ; preds = %6
  tail call void @llvm.memcpy.p0.p0.i64(ptr noundef nonnull align 8 dereferenceable(12392) %3, ptr noundef nonnull align 16 dereferenceable(12392) %2, i64 12392, i1 false), !tbaa.struct !87
  %10 = getelementptr inbounds nuw i8, ptr %0, i64 8
  %11 = load ptr, ptr %10, align 8, !tbaa !4
  %12 = getelementptr inbounds nuw i8, ptr %11, i64 352
  %13 = getelementptr inbounds nuw i8, ptr %0, i64 10904
  tail call void @llvm.memmove.p0.p0.i64(ptr noundef nonnull align 8 dereferenceable(24) %12, ptr noundef nonnull align 8 dereferenceable(24) %13, i64 24, i1 false)
  %14 = getelementptr inbounds nuw i8, ptr %0, i64 22520
  %15 = getelementptr inbounds nuw i8, ptr %0, i64 23288
  %16 = load i32, ptr %15, align 8, !tbaa !18
  %17 = load i32, ptr %4, align 8, !tbaa !50
  %18 = tail call i32 @ff_aac_output_configure(ptr noundef nonnull %0, ptr noundef nonnull %14, i32 noundef %16, i32 noundef %17, i32 noundef 0)
  br label %19

19:                                               ; preds = %9, %6, %1
  ret void
}